; Function Attrs: mustprogress nofree norecurse nosync nounwind willreturn memory(argmem: readwrite) uwtable
define void @_ZNK32pxrInternal_v0_24__pxrReserved__10GfMatrix4f21ExtractRotationMatrixEv(ptr dead_on_unwind noalias writable writeonly sret(%"class.pxrInternal_v0_24__pxrReserved__::GfMatrix3f") align 4 captures(none) initializes((0, 36)) %0, ptr noundef nonnull readonly align 4 captures(none) dereferenceable(64) %1) local_unnamed_addr #2 align 2 {
  %3 = load float, ptr %1, align 4
  %4 = getelementptr inbounds nuw i8, ptr %1, i64 4
  %5 = load float, ptr %4, align 4
  %6 = getelementptr inbounds nuw i8, ptr %1, i64 8
  %7 = load float, ptr %6, align 4
  %8 = getelementptr inbounds nuw i8, ptr %1, i64 16
  %9 = load float, ptr %8, align 4
  %10 = getelementptr inbounds nuw i8, ptr %1, i64 20
  %11 = load float, ptr %10, align 4
  %12 = getelementptr inbounds nuw i8, ptr %1, i64 24
  %13 = load float, ptr %12, align 4
  %14 = getelementptr inbounds nuw i8, ptr %1, i64 32
  %15 = load float, ptr %14, align 4
  %16 = getelementptr inbounds nuw i8, ptr %1, i64 36
  %17 = load float, ptr %16, align 4
  %18 = getelementptr inbounds nuw i8, ptr %1, i64 40
  %19 = load float, ptr %18, align 4
  store float %3, ptr %0, align 4
  %20 = getelementptr inbounds nuw i8, ptr %0, i64 4
  store float %5, ptr %20, align 4
  %21 = getelementptr inbounds nuw i8, ptr %0, i64 8
  store float %7, ptr %21, align 4
  %22 = getelementptr inbounds nuw i8, ptr %0, i64 12
  store float %9, ptr %22, align 4
  %23 = getelementptr inbounds nuw i8, ptr %0, i64 16
  store float %11, ptr %23, align 4
  %24 = getelementptr inbounds nuw i8, ptr %0, i64 20
  store float %13, ptr %24, align 4
  %25 = getelementptr inbounds nuw i8, ptr %0, i64 24
  store float %15, ptr %25, align 4
  %26 = getelementptr inbounds nuw i8, ptr %0, i64 28
  store float %17, ptr %26, align 4
  %27 = getelementptr inbounds nuw i8, ptr %0, i64 32
  store float %19, ptr %27, align 4
  ret void
}